target datalayout = "e-m:e-p270:32:32-p271:32:32-p272:64:64-i64:64-i128:128-f80:128-n8:16:32:64-S128"
target triple = "x86_64-unknown-linux-gnu"

%"struct.facebook::velox::memory::MemoryArbitrator::Stats" = type { i64, i64, i64, i64, i64, i64, i64, i64, i64, i64, i64, i64, i64, i64 }

; Function Attrs: mustprogress nounwind uwtable
define linkonce_odr void @_ZN8facebook5velox6memory16MemoryArbitrator5StatsC2Ev(ptr noundef nonnull align 8 dereferenceable(112) %this) unnamed_addr #2 comdat align 2 {
entry:
  %this.addr = alloca ptr, align 8
  store ptr %this, ptr %this.addr, align 8
  %this1 = load ptr, ptr %this.addr, align 8
  %numRequests = getelementptr inbounds %"struct.facebook::velox::memory::MemoryArbitrator::Stats", ptr %this1, i32 0, i32 0
  store i64 0, ptr %numRequests, align 8
  %numSucceeded = getelementptr inbounds %"struct.facebook::velox::memory::MemoryArbitrator::Stats", ptr %this1, i32 0, i32 1
  store i64 0, ptr %numSucceeded, align 8
  %numAborted = getelementptr inbounds %"struct.facebook::velox::memory::MemoryArbitrator::Stats", ptr %this1, i32 0, i32 2
  store i64 0, ptr %numAborted, align 8
  %numFailures = getelementptr inbounds %"struct.facebook::velox::memory::MemoryArbitrator::Stats", ptr %this1, i32 0, i32 3
  store i64 0, ptr %numFailures, align 8
  %queueTimeUs = getelementptr inbounds %"struct.facebook::velox::memory::MemoryArbitrator::Stats", ptr %this1, i32 0, i32 4
  store i64 0, ptr %queueTimeUs, align 8
  %arbitrationTimeUs = getelementptr inbounds %"struct.facebook::velox::memory::MemoryArbitrator::Stats", ptr %this1, i32 0, i32 5
  store i64 0, ptr %arbitrationTimeUs, align 8
  %numShrunkBytes = getelementptr inbounds %"struct.facebook::velox::memory::MemoryArbitrator::Stats", ptr %this1, i32 0, i32 6
  store i64 0, ptr %numShrunkBytes, align 8
  %numReclaimedBytes = getelementptr inbounds %"struct.facebook::velox::memory::MemoryArbitrator::Stats", ptr %this1, i32 0, i32 7
  store i64 0, ptr %numReclaimedBytes, align 8
  %maxCapacityBytes = getelementptr inbounds %"struct.facebook::velox::memory::MemoryArbitrator::Stats", ptr %this1, i32 0, i32 8
  store i64 0, ptr %maxCapacityBytes, align 8
  %freeCapacityBytes = getelementptr inbounds %"struct.facebook::velox::memory::MemoryArbitrator::Stats", ptr %this1, i32 0, i32 9
  store i64 0, ptr %freeCapacityBytes, align 8
  %reclaimTimeUs = getelementptr inbounds %"struct.facebook::velox::memory::MemoryArbitrator::Stats", ptr %this1, i32 0, i32 10
  store i64 0, ptr %reclaimTimeUs, align 8
  %numNonReclaimableAttempts = getelementptr inbounds %"struct.facebook::velox::memory::MemoryArbitrator::Stats", ptr %this1, i32 0, i32 11
  store i64 0, ptr %numNonReclaimableAttempts, align 8
  %numReserves = getelementptr inbounds %"struct.facebook::velox::memory::MemoryArbitrator::Stats", ptr %this1, i32 0, i32 12
  store i64 0, ptr %numReserves, align 8
  %numReleases = getelementptr inbounds %"struct.facebook::velox::memory::MemoryArbitrator::Stats", ptr %this1, i32 0, i32 13
  store i64 0, ptr %numReleases, align 8
  ret void
}

; Function Attrs: mustprogress nounwind uwtable
define void @_ZNK8facebook5velox6memory16MemoryArbitrator5StatsmiERKS3_(ptr noalias sret(%"struct.facebook::velox::memory::MemoryArbitrator::Stats") align 8 %agg.result, ptr noundef nonnull align 8 dereferenceable(112) %this, ptr noundef nonnull align 8 dereferenceable(112) %other) #2 align 2 {
entry:
  %this.addr = alloca ptr, align 8
  %other.addr = alloca ptr, align 8
  store ptr %this, ptr %this.addr, align 8
  store ptr %other, ptr %other.addr, align 8
  %this1 = load ptr, ptr %this.addr, align 8
  call void @_ZN8facebook5velox6memory16MemoryArbitrator5StatsC2Ev(ptr noundef nonnull align 8 dereferenceable(112) %agg.result) #9
  %numRequests = getelementptr inbounds %"struct.facebook::velox::memory::MemoryArbitrator::Stats", ptr %this1, i32 0, i32 0
  %0 = load i64, ptr %numRequests, align 8
  %1 = load ptr, ptr %other.addr, align 8
  %numRequests2 = getelementptr inbounds %"struct.facebook::velox::memory::MemoryArbitrator::Stats", ptr %1, i32 0, i32 0
  %2 = load i64, ptr %numRequests2, align 8
  %sub = sub i64 %0, %2
  %numRequests3 = getelementptr inbounds %"struct.facebook::velox::memory::MemoryArbitrator::Stats", ptr %agg.result, i32 0, i32 0
  store i64 %sub, ptr %numRequests3, align 8
  %numSucceeded = getelementptr inbounds %"struct.facebook::velox::memory::MemoryArbitrator::Stats", ptr %this1, i32 0, i32 1
  %3 = load i64, ptr %numSucceeded, align 8
  %4 = load ptr, ptr %other.addr, align 8
  %numSucceeded4 = getelementptr inbounds %"struct.facebook::velox::memory::MemoryArbitrator::Stats", ptr %4, i32 0, i32 1
  %5 = load i64, ptr %numSucceeded4, align 8
  %sub5 = sub i64 %3, %5
  %numSucceeded6 = getelementptr inbounds %"struct.facebook::velox::memory::MemoryArbitrator::Stats", ptr %agg.result, i32 0, i32 1
  store i64 %sub5, ptr %numSucceeded6, align 8
  %numAborted = getelementptr inbounds %"struct.facebook::velox::memory::MemoryArbitrator::Stats", ptr %this1, i32 0, i32 2
  %6 = load i64, ptr %numAborted, align 8
  %7 = load ptr, ptr %other.addr, align 8
  %numAborted7 = getelementptr inbounds %"struct.facebook::velox::memory::MemoryArbitrator::Stats", ptr %7, i32 0, i32 2
  %8 = load i64, ptr %numAborted7, align 8
  %sub8 = sub i64 %6, %8
  %numAborted9 = getelementptr inbounds %"struct.facebook::velox::memory::MemoryArbitrator::Stats", ptr %agg.result, i32 0, i32 2
  store i64 %sub8, ptr %numAborted9, align 8
  %numFailures = getelementptr inbounds %"struct.facebook::velox::memory::MemoryArbitrator::Stats", ptr %this1, i32 0, i32 3
  %9 = load i64, ptr %numFailures, align 8
  %10 = load ptr, ptr %other.addr, align 8
  %numFailures10 = getelementptr inbounds %"struct.facebook::velox::memory::MemoryArbitrator::Stats", ptr %10, i32 0, i32 3
  %11 = load i64, ptr %numFailures10, align 8
  %sub11 = sub i64 %9, %11
  %numFailures12 = getelementptr inbounds %"struct.facebook::velox::memory::MemoryArbitrator::Stats", ptr %agg.result, i32 0, i32 3
  store i64 %sub11, ptr %numFailures12, align 8
  %queueTimeUs = getelementptr inbounds %"struct.facebook::velox::memory::MemoryArbitrator::Stats", ptr %this1, i32 0, i32 4
  %12 = load i64, ptr %queueTimeUs, align 8
  %13 = load ptr, ptr %other.addr, align 8
  %queueTimeUs13 = getelementptr inbounds %"struct.facebook::velox::memory::MemoryArbitrator::Stats", ptr %13, i32 0, i32 4
  %14 = load i64, ptr %queueTimeUs13, align 8
  %sub14 = sub i64 %12, %14
  %queueTimeUs15 = getelementptr inbounds %"struct.facebook::velox::memory::MemoryArbitrator::Stats", ptr %agg.result, i32 0, i32 4
  store i64 %sub14, ptr %queueTimeUs15, align 8
  %arbitrationTimeUs = getelementptr inbounds %"struct.facebook::velox::memory::MemoryArbitrator::Stats", ptr %this1, i32 0, i32 5
  %15 = load i64, ptr %arbitrationTimeUs, align 8
  %16 = load ptr, ptr %other.addr, align 8
  %arbitrationTimeUs16 = getelementptr inbounds %"struct.facebook::velox::memory::MemoryArbitrator::Stats", ptr %16, i32 0, i32 5
  %17 = load i64, ptr %arbitrationTimeUs16, align 8
  %sub17 = sub i64 %15, %17
  %arbitrationTimeUs18 = getelementptr inbounds %"struct.facebook::velox::memory::MemoryArbitrator::Stats", ptr %agg.result, i32 0, i32 5
  store i64 %sub17, ptr %arbitrationTimeUs18, align 8
  %numShrunkBytes = getelementptr inbounds %"struct.facebook::velox::memory::MemoryArbitrator::Stats", ptr %this1, i32 0, i32 6
  %18 = load i64, ptr %numShrunkBytes, align 8
  %19 = load ptr, ptr %other.addr, align 8
  %numShrunkBytes19 = getelementptr inbounds %"struct.facebook::velox::memory::MemoryArbitrator::Stats", ptr %19, i32 0, i32 6
  %20 = load i64, ptr %numShrunkBytes19, align 8
  %sub20 = sub i64 %18, %20
  %numShrunkBytes21 = getelementptr inbounds %"struct.facebook::velox::memory::MemoryArbitrator::Stats", ptr %agg.result, i32 0, i32 6
  store i64 %sub20, ptr %numShrunkBytes21, align 8
  %numReclaimedBytes = getelementptr inbounds %"struct.facebook::velox::memory::MemoryArbitrator::Stats", ptr %this1, i32 0, i32 7
  %21 = load i64, ptr %numReclaimedBytes, align 8
  %22 = load ptr, ptr %other.addr, align 8
  %numReclaimedBytes22 = getelementptr inbounds %"struct.facebook::velox::memory::MemoryArbitrator::Stats", ptr %22, i32 0, i32 7
  %23 = load i64, ptr %numReclaimedBytes22, align 8
  %sub23 = sub i64 %21, %23
  %numReclaimedBytes24 = getelementptr inbounds %"struct.facebook::velox::memory::MemoryArbitrator::Stats", ptr %agg.result, i32 0, i32 7
  store i64 %sub23, ptr %numReclaimedBytes24, align 8
  %maxCapacityBytes = getelementptr inbounds %"struct.facebook::velox::memory::MemoryArbitrator::Stats", ptr %this1, i32 0, i32 8
  %24 = load i64, ptr %maxCapacityBytes, align 8
  %maxCapacityBytes25 = getelementptr inbounds %"struct.facebook::velox::memory::MemoryArbitrator::Stats", ptr %agg.result, i32 0, i32 8
  store i64 %24, ptr %maxCapacityBytes25, align 8
  %freeCapacityBytes = getelementptr inbounds %"struct.facebook::velox::memory::MemoryArbitrator::Stats", ptr %this1, i32 0, i32 9
  %25 = load i64, ptr %freeCapacityBytes, align 8
  %freeCapacityBytes26 = getelementptr inbounds %"struct.facebook::velox::memory::MemoryArbitrator::Stats", ptr %agg.result, i32 0, i32 9
  store i64 %25, ptr %freeCapacityBytes26, align 8
  %reclaimTimeUs = getelementptr inbounds %"struct.facebook::velox::memory::MemoryArbitrator::Stats", ptr %this1, i32 0, i32 10
  %26 = load i64, ptr %reclaimTimeUs, align 8
  %27 = load ptr, ptr %other.addr, align 8
  %reclaimTimeUs27 = getelementptr inbounds %"struct.facebook::velox::memory::MemoryArbitrator::Stats", ptr %27, i32 0, i32 10
  %28 = load i64, ptr %reclaimTimeUs27, align 8
  %sub28 = sub i64 %26, %28
  %reclaimTimeUs29 = getelementptr inbounds %"struct.facebook::velox::memory::MemoryArbitrator::Stats", ptr %agg.result, i32 0, i32 10
  store i64 %sub28, ptr %reclaimTimeUs29, align 8
  %numNonReclaimableAttempts = getelementptr inbounds %"struct.facebook::velox::memory::MemoryArbitrator::Stats", ptr %this1, i32 0, i32 11
  %29 = load i64, ptr %numNonReclaimableAttempts, align 8
  %30 = load ptr, ptr %other.addr, align 8
  %numNonReclaimableAttempts30 = getelementptr inbounds %"struct.facebook::velox::memory::MemoryArbitrator::Stats", ptr %30, i32 0, i32 11
  %31 = load i64, ptr %numNonReclaimableAttempts30, align 8
  %sub31 = sub i64 %29, %31
  %numNonReclaimableAttempts32 = getelementptr inbounds %"struct.facebook::velox::memory::MemoryArbitrator::Stats", ptr %agg.result, i32 0, i32 11
  store i64 %sub31, ptr %numNonReclaimableAttempts32, align 8
  %numReserves = getelementptr inbounds %"struct.facebook::velox::memory::MemoryArbitrator::Stats", ptr %this1, i32 0, i32 12
  %32 = load i64, ptr %numReserves, align 8
  %33 = load ptr, ptr %other.addr, align 8
  %numReserves33 = getelementptr inbounds %"struct.facebook::velox::memory::MemoryArbitrator::Stats", ptr %33, i32 0, i32 12
  %34 = load i64, ptr %numReserves33, align 8
  %sub34 = sub i64 %32, %34
  %numReserves35 = getelementptr inbounds %"struct.facebook::velox::memory::MemoryArbitrator::Stats", ptr %agg.result, i32 0, i32 12
  store i64 %sub34, ptr %numReserves35, align 8
  %numReleases = getelementptr inbounds %"struct.facebook::velox::memory::MemoryArbitrator::Stats", ptr %this1, i32 0, i32 13
  %35 = load i64, ptr %numReleases, align 8
  %36 = load ptr, ptr %other.addr, align 8
  %numReleases36 = getelementptr inbounds %"struct.facebook::velox::memory::MemoryArbitrator::Stats", ptr %36, i32 0, i32 13
  %37 = load i64, ptr %numReleases36, align 8
  %sub37 = sub i64 %35, %37
  %numReleases38 = getelementptr inbounds %"struct.facebook::velox::memory::MemoryArbitrator::Stats", ptr %agg.result, i32 0, i32 13
  store i64 %sub37, ptr %numReleases38, align 8
  ret void
}