; Function Attrs: mustprogress nofree norecurse nosync nounwind willreturn memory(argmem: readwrite) uwtable
define void @_ZNK8facebook5velox6memory16MemoryArbitrator5StatsmiERKS3_(ptr noalias nocapture writeonly sret(%"struct.facebook::velox::memory::MemoryArbitrator::Stats") align 8 %agg.result, ptr nocapture noundef nonnull readonly align 8 dereferenceable(112) %this, ptr nocapture noundef nonnull readonly align 8 dereferenceable(112) %other) local_unnamed_addr #10 align 2 {
entry:
  %0 = load <4 x i64>, ptr %this, align 8
  %1 = load <4 x i64>, ptr %other, align 8
  %2 = sub <4 x i64> %0, %1
  store <4 x i64> %2, ptr %agg.result, align 8
  %queueTimeUs = getelementptr inbounds i8, ptr %this, i64 32
  %queueTimeUs13 = getelementptr inbounds i8, ptr %other, i64 32
  %queueTimeUs15 = getelementptr inbounds i8, ptr %agg.result, i64 32
  %3 = load <4 x i64>, ptr %queueTimeUs, align 8
  %4 = load <4 x i64>, ptr %queueTimeUs13, align 8
  %5 = sub <4 x i64> %3, %4
  store <4 x i64> %5, ptr %queueTimeUs15, align 8
  %maxCapacityBytes = getelementptr inbounds i8, ptr %this, i64 64
  %maxCapacityBytes25 = getelementptr inbounds i8, ptr %agg.result, i64 64
  %6 = load <2 x i64>, ptr %maxCapacityBytes, align 8
  store <2 x i64> %6, ptr %maxCapacityBytes25, align 8
  %reclaimTimeUs = getelementptr inbounds i8, ptr %this, i64 80
  %reclaimTimeUs27 = getelementptr inbounds i8, ptr %other, i64 80
  %reclaimTimeUs29 = getelementptr inbounds i8, ptr %agg.result, i64 80
  %7 = load <4 x i64>, ptr %reclaimTimeUs, align 8
  %8 = load <4 x i64>, ptr %reclaimTimeUs27, align 8
  %9 = sub <4 x i64> %7, %8
  store <4 x i64> %9, ptr %reclaimTimeUs29, align 8
  ret void
}